; Function Attrs: mustprogress nofree norecurse nosync nounwind memory(argmem: readwrite) uwtable
define hidden noundef i32 @_ZN14GenerateOopMap8copy_ctsEP13CellTypeStateS1_(ptr nocapture noundef nonnull readnone align 8 dereferenceable(176) %0, ptr nocapture noundef writeonly %1, ptr nocapture noundef readonly %2) local_unnamed_addr #9 align 2 {
  %4 = load i32, ptr %2, align 4
  %5 = icmp eq i32 %4, 0
  br i1 %5, label %._crit_edge, label %.lr.ph

.lr.ph:                                           ; preds = %3, %.lr.ph
  %indvars.iv = phi i64 [ %indvars.iv.next, %.lr.ph ], [ 0, %3 ]
  %6 = phi i32 [ %9, %.lr.ph ], [ %4, %3 ]
  %7 = getelementptr inbounds %class.CellTypeState, ptr %1, i64 %indvars.iv
  store i32 %6, ptr %7, align 4
  %indvars.iv.next = add nuw nsw i64 %indvars.iv, 1
  %8 = getelementptr inbounds %class.CellTypeState, ptr %2, i64 %indvars.iv.next
  %9 = load i32, ptr %8, align 4
  %10 = icmp eq i32 %9, 0
  br i1 %10, label %._crit_edge.loopexit, label %.lr.ph, !llvm.loop !48

._crit_edge.loopexit:                             ; preds = %.lr.ph
  %11 = trunc nuw nsw i64 %indvars.iv.next to i32
  br label %._crit_edge

._crit_edge:                                      ; preds = %._crit_edge.loopexit, %3
  %.0.lcssa = phi i32 [ 0, %3 ], [ %11, %._crit_edge.loopexit ]
  ret i32 %.0.lcssa
}